; Function Attrs: mustprogress nofree norecurse nosync nounwind willreturn memory(read, inaccessiblemem: none) uwtable
define dso_local noundef float @_ZN5ImGui25GetTreeNodeToLabelSpacingEv() local_unnamed_addr #19 {
  %1 = load ptr, ptr @GImGui, align 8, !tbaa !4
  %2 = getelementptr inbounds nuw i8, ptr %1, i64 4184
  %3 = load float, ptr %2, align 8, !tbaa !172
  %4 = getelementptr inbounds nuw i8, ptr %1, i64 3076
  %5 = load float, ptr %4, align 4, !tbaa !312
  %6 = fmul float %5, 2.000000e+00
  %7 = fadd float %3, %6
  ret float %7
}